; Function Attrs: nounwind uwtable
define void @lv_obj_scroll_to_x(ptr noundef %0, i32 noundef %1, i32 noundef %2) local_unnamed_addr #0 {
  %4 = tail call zeroext i1 @lv_anim_delete(ptr noundef %0, ptr noundef nonnull @scroll_x_anim) #5
  %5 = getelementptr inbounds nuw i8, ptr %0, i64 16
  %6 = load ptr, ptr %5, align 8, !tbaa !3
  %7 = icmp eq ptr %6, null
  br i1 %7, label %lv_obj_get_scroll_x.exit, label %8

8:                                                ; preds = %3
  %9 = getelementptr inbounds nuw i8, ptr %6, i64 48
  %10 = load i32, ptr %9, align 8, !tbaa !11
  %11 = sub nsw i32 0, %10
  br label %lv_obj_get_scroll_x.exit

lv_obj_get_scroll_x.exit:                         ; preds = %3, %8
  %.0.i = phi i32 [ %11, %8 ], [ 0, %3 ]
  %12 = sub nsw i32 %.0.i, %1
  tail call void @lv_obj_scroll_by_bounded(ptr noundef nonnull %0, i32 noundef %12, i32 noundef 0, i32 noundef %2)
  ret void
}